; Function Attrs: nounwind uwtable
define i32 @png_fixed(ptr noalias noundef %0, double noundef %1, ptr noundef %2) local_unnamed_addr #0 {
  %4 = tail call double @llvm.fmuladd.f64(double %1, double 1.000000e+05, double 5.000000e-01)
  %5 = tail call double @llvm.floor.f64(double %4)
  %6 = fcmp ogt double %5, 0x41DFFFFFFFC00000
  %7 = fcmp olt double %5, 0xC1E0000000000000
  %or.cond = or i1 %6, %7
  br i1 %or.cond, label %8, label %9

8:                                                ; preds = %3
  tail call void @png_fixed_error(ptr noundef %0, ptr noundef %2) #27
  unreachable

9:                                                ; preds = %3
  %10 = fptosi double %5 to i32
  ret i32 %10
}